target datalayout = "e-m:e-p270:32:32-p271:32:32-p272:64:64-i64:64-i128:128-f80:128-n8:16:32:64-S128"
target triple = "x86_64-pc-linux-gnu"

%struct.tMPI_Atomic = type { i32, [60 x i8] }
%struct.tMPI_Thread_cond_t = type { %struct.tMPI_Atomic, ptr }
%struct.tMPI_Thread_cond = type { %union.pthread_cond_t }
%union.pthread_cond_t = type { %struct.__pthread_cond_s }
%struct.__pthread_cond_s = type { %union.__atomic_wide_counter, %union.__atomic_wide_counter, [2 x i32], [2 x i32], i32, i32, [2 x i32] }
%union.__atomic_wide_counter = type { i64 }

; Function Attrs: mustprogress nounwind uwtable
define noundef i32 @_Z24tMPI_Thread_cond_destroyP18tMPI_Thread_cond_t(ptr noundef %0) #0 {
  %2 = alloca i32, align 4
  %3 = alloca ptr, align 8
  %4 = alloca i32, align 4
  store ptr %0, ptr %3, align 8
  %5 = load ptr, ptr %3, align 8
  %6 = icmp eq ptr %5, null
  br i1 %6, label %7, label %8

7:                                                ; preds = %1
  store i32 22, ptr %2, align 4
  br label %22

8:                                                ; preds = %1
  %9 = load ptr, ptr %3, align 8
  %10 = getelementptr inbounds %struct.tMPI_Thread_cond_t, ptr %9, i32 0, i32 1
  %11 = load ptr, ptr %10, align 8
  %12 = getelementptr inbounds %struct.tMPI_Thread_cond, ptr %11, i32 0, i32 0
  %13 = call i32 @pthread_cond_destroy(ptr noundef %12) #8
  store i32 %13, ptr %4, align 4
  %14 = load i32, ptr %4, align 4
  %15 = icmp ne i32 %14, 0
  br i1 %15, label %16, label %18

16:                                               ; preds = %8
  %17 = load i32, ptr %4, align 4
  store i32 %17, ptr %2, align 4
  br label %22

18:                                               ; preds = %8
  %19 = load ptr, ptr %3, align 8
  %20 = getelementptr inbounds %struct.tMPI_Thread_cond_t, ptr %19, i32 0, i32 1
  %21 = load ptr, ptr %20, align 8
  call void @free(ptr noundef %21) #8
  store i32 0, ptr %2, align 4
  br label %22

22:                                               ; preds = %18, %16, %7
  %23 = load i32, ptr %2, align 4
  ret i32 %23
}