; Function Attrs: mustprogress nounwind uwtable
define noundef i32 @_Z24tMPI_Thread_cond_destroyP18tMPI_Thread_cond_t(ptr noundef readonly %0) local_unnamed_addr #1 {
  %2 = icmp eq ptr %0, null
  br i1 %2, label %9, label %3

3:                                                ; preds = %1
  %4 = getelementptr inbounds i8, ptr %0, i64 64
  %5 = load ptr, ptr %4, align 8
  %6 = tail call i32 @pthread_cond_destroy(ptr noundef %5) #13
  %.not = icmp eq i32 %6, 0
  br i1 %.not, label %7, label %9

7:                                                ; preds = %3
  %8 = load ptr, ptr %4, align 8
  tail call void @free(ptr noundef %8) #13
  br label %9

9:                                                ; preds = %3, %1, %7
  %.0 = phi i32 [ 0, %7 ], [ 22, %1 ], [ %6, %3 ]
  ret i32 %.0
}